; Function Attrs: mustprogress uwtable
define void @_ZN7rocksdb16BlockCacheTracerC2Ev(ptr noundef nonnull align 8 dereferenceable(88) initializes((0, 8)) %0) unnamed_addr #5 align 2 {
  store i64 1, ptr %0, align 8, !tbaa !153
  %2 = getelementptr inbounds nuw i8, ptr %0, i64 8
  tail call void @_ZN7rocksdb4port5MutexC1Eb(ptr noundef nonnull align 8 dereferenceable(60) %2, i1 noundef zeroext false)
  %3 = getelementptr inbounds nuw i8, ptr %0, i64 48
  tail call void @llvm.memset.p0.i64(ptr noundef nonnull align 8 dereferenceable(20) %3, i8 0, i64 20, i1 false)
  %4 = getelementptr inbounds nuw i8, ptr %0, i64 72
  store atomic i64 0, ptr %4 seq_cst, align 8
  ret void
}